#include <math.h>
#include <stdio.h>
#include <stdlib.h>
#include <string.h>

main()
{
    int max,min,n,s=0,i,j,m;
    int a[301];
    float aver,s1,s2,sum=0;
    scanf("%d",&n);

    for(i=0;i<n;i++)
    scanf("%d",&a[i]);
    for(i=0;i<n;i++)
      sum=sum+a[i];
    aver=sum/n;
  
    max=a[0];
    for(i=1;i<n;i++)
    {if(max<a[i]) max=a[i];}
 
    min=a[0];
    for(j=1;j<n;j++)
    {if(min>a[j])  min=a[j];}
    
    s1=max-aver;
    s2=aver-min;

    if(s1>s2)   printf("%d\n",max);  
    if(s1<s2)   printf("%d\n",min); 
    if(s1==s2)  printf("%d,%d\n",min,max);
}