; ModuleID = '21/59.c'
source_filename = "21/59.c"
target datalayout = "e-m:e-p270:32:32-p271:32:32-p272:64:64-i64:64-f80:128-n8:16:32:64-S128"
target triple = "x86_64-pc-linux-gnu"

@.str = private unnamed_addr constant [3 x i8] c"%d\00", align 1
@.str.1 = private unnamed_addr constant [4 x i8] c"%d\0A\00", align 1
@.str.2 = private unnamed_addr constant [7 x i8] c"%d,%d\0A\00", align 1

; Function Attrs: noinline nounwind uwtable
define dso_local i32 @main() #0 {
  %1 = alloca i32, align 4
  %2 = alloca i32, align 4
  %3 = alloca i32, align 4
  %4 = alloca i32, align 4
  %5 = alloca i32, align 4
  %6 = alloca i32, align 4
  %7 = alloca i32, align 4
  %8 = alloca i32, align 4
  %9 = alloca [301 x i32], align 16
  %10 = alloca float, align 4
  %11 = alloca float, align 4
  %12 = alloca float, align 4
  %13 = alloca float, align 4
  store i32 0, i32* %1, align 4
  store i32 0, i32* %5, align 4
  store float 0.000000e+00, float* %13, align 4
  %14 = call i32 (i8*, ...) @__isoc99_scanf(i8* getelementptr inbounds ([3 x i8], [3 x i8]* @.str, i64 0, i64 0), i32* %4)
  store i32 0, i32* %6, align 4
  br label %15

15:                                               ; preds = %24, %0
  %16 = load i32, i32* %6, align 4
  %17 = load i32, i32* %4, align 4
  %18 = icmp slt i32 %16, %17
  br i1 %18, label %19, label %27

19:                                               ; preds = %15
  %20 = load i32, i32* %6, align 4
  %21 = sext i32 %20 to i64
  %22 = getelementptr inbounds [301 x i32], [301 x i32]* %9, i64 0, i64 %21
  %23 = call i32 (i8*, ...) @__isoc99_scanf(i8* getelementptr inbounds ([3 x i8], [3 x i8]* @.str, i64 0, i64 0), i32* %22)
  br label %24

24:                                               ; preds = %19
  %25 = load i32, i32* %6, align 4
  %26 = add nsw i32 %25, 1
  store i32 %26, i32* %6, align 4
  br label %15

27:                                               ; preds = %15
  store i32 0, i32* %6, align 4
  br label %28

28:                                               ; preds = %40, %27
  %29 = load i32, i32* %6, align 4
  %30 = load i32, i32* %4, align 4
  %31 = icmp slt i32 %29, %30
  br i1 %31, label %32, label %43

32:                                               ; preds = %28
  %33 = load float, float* %13, align 4
  %34 = load i32, i32* %6, align 4
  %35 = sext i32 %34 to i64
  %36 = getelementptr inbounds [301 x i32], [301 x i32]* %9, i64 0, i64 %35
  %37 = load i32, i32* %36, align 4
  %38 = sitofp i32 %37 to float
  %39 = fadd float %33, %38
  store float %39, float* %13, align 4
  br label %40

40:                                               ; preds = %32
  %41 = load i32, i32* %6, align 4
  %42 = add nsw i32 %41, 1
  store i32 %42, i32* %6, align 4
  br label %28

43:                                               ; preds = %28
  %44 = load float, float* %13, align 4
  %45 = load i32, i32* %4, align 4
  %46 = sitofp i32 %45 to float
  %47 = fdiv float %44, %46
  store float %47, float* %10, align 4
  %48 = getelementptr inbounds [301 x i32], [301 x i32]* %9, i64 0, i64 0
  %49 = load i32, i32* %48, align 16
  store i32 %49, i32* %2, align 4
  store i32 1, i32* %6, align 4
  br label %50

50:                                               ; preds = %67, %43
  %51 = load i32, i32* %6, align 4
  %52 = load i32, i32* %4, align 4
  %53 = icmp slt i32 %51, %52
  br i1 %53, label %54, label %70

54:                                               ; preds = %50
  %55 = load i32, i32* %2, align 4
  %56 = load i32, i32* %6, align 4
  %57 = sext i32 %56 to i64
  %58 = getelementptr inbounds [301 x i32], [301 x i32]* %9, i64 0, i64 %57
  %59 = load i32, i32* %58, align 4
  %60 = icmp slt i32 %55, %59
  br i1 %60, label %61, label %66

61:                                               ; preds = %54
  %62 = load i32, i32* %6, align 4
  %63 = sext i32 %62 to i64
  %64 = getelementptr inbounds [301 x i32], [301 x i32]* %9, i64 0, i64 %63
  %65 = load i32, i32* %64, align 4
  store i32 %65, i32* %2, align 4
  br label %66

66:                                               ; preds = %61, %54
  br label %67

67:                                               ; preds = %66
  %68 = load i32, i32* %6, align 4
  %69 = add nsw i32 %68, 1
  store i32 %69, i32* %6, align 4
  br label %50

70:                                               ; preds = %50
  %71 = getelementptr inbounds [301 x i32], [301 x i32]* %9, i64 0, i64 0
  %72 = load i32, i32* %71, align 16
  store i32 %72, i32* %3, align 4
  store i32 1, i32* %7, align 4
  br label %73

73:                                               ; preds = %90, %70
  %74 = load i32, i32* %7, align 4
  %75 = load i32, i32* %4, align 4
  %76 = icmp slt i32 %74, %75
  br i1 %76, label %77, label %93

77:                                               ; preds = %73
  %78 = load i32, i32* %3, align 4
  %79 = load i32, i32* %7, align 4
  %80 = sext i32 %79 to i64
  %81 = getelementptr inbounds [301 x i32], [301 x i32]* %9, i64 0, i64 %80
  %82 = load i32, i32* %81, align 4
  %83 = icmp sgt i32 %78, %82
  br i1 %83, label %84, label %89

84:                                               ; preds = %77
  %85 = load i32, i32* %7, align 4
  %86 = sext i32 %85 to i64
  %87 = getelementptr inbounds [301 x i32], [301 x i32]* %9, i64 0, i64 %86
  %88 = load i32, i32* %87, align 4
  store i32 %88, i32* %3, align 4
  br label %89

89:                                               ; preds = %84, %77
  br label %90

90:                                               ; preds = %89
  %91 = load i32, i32* %7, align 4
  %92 = add nsw i32 %91, 1
  store i32 %92, i32* %7, align 4
  br label %73

93:                                               ; preds = %73
  %94 = load i32, i32* %2, align 4
  %95 = sitofp i32 %94 to float
  %96 = load float, float* %10, align 4
  %97 = fsub float %95, %96
  store float %97, float* %11, align 4
  %98 = load float, float* %10, align 4
  %99 = load i32, i32* %3, align 4
  %100 = sitofp i32 %99 to float
  %101 = fsub float %98, %100
  store float %101, float* %12, align 4
  %102 = load float, float* %11, align 4
  %103 = load float, float* %12, align 4
  %104 = fcmp ogt float %102, %103
  br i1 %104, label %105, label %108

105:                                              ; preds = %93
  %106 = load i32, i32* %2, align 4
  %107 = call i32 (i8*, ...) @printf(i8* getelementptr inbounds ([4 x i8], [4 x i8]* @.str.1, i64 0, i64 0), i32 %106)
  br label %108

108:                                              ; preds = %105, %93
  %109 = load float, float* %11, align 4
  %110 = load float, float* %12, align 4
  %111 = fcmp olt float %109, %110
  br i1 %111, label %112, label %115

112:                                              ; preds = %108
  %113 = load i32, i32* %3, align 4
  %114 = call i32 (i8*, ...) @printf(i8* getelementptr inbounds ([4 x i8], [4 x i8]* @.str.1, i64 0, i64 0), i32 %113)
  br label %115

115:                                              ; preds = %112, %108
  %116 = load float, float* %11, align 4
  %117 = load float, float* %12, align 4
  %118 = fcmp oeq float %116, %117
  br i1 %118, label %119, label %123

119:                                              ; preds = %115
  %120 = load i32, i32* %3, align 4
  %121 = load i32, i32* %2, align 4
  %122 = call i32 (i8*, ...) @printf(i8* getelementptr inbounds ([7 x i8], [7 x i8]* @.str.2, i64 0, i64 0), i32 %120, i32 %121)
  br label %123

123:                                              ; preds = %119, %115
  %124 = load i32, i32* %1, align 4
  ret i32 %124
}

declare dso_local i32 @__isoc99_scanf(i8*, ...) #1

declare dso_local i32 @printf(i8*, ...) #1


!llvm.module.flags = !{!0}
!llvm.ident = !{!1}

!0 = !{i32 1, !"wchar_size", i32 4}
!1 = !{!"clang version 10.0.0-4ubuntu1 "}
